; Function Attrs: nounwind uwtable
define ptr @l_Lean_PrettyPrinter_Delaborator_SubExpr_withLetBody___rarg(ptr noundef %0, ptr readnone captures(none) %1, ptr noundef %2, ptr noundef %3, ptr noundef %4, ptr noundef %5, ptr noundef %6) #0 {
  %8 = getelementptr inbounds nuw i8, ptr %2, i64 16
  %9 = load ptr, ptr %8, align 8, !tbaa !5
  %10 = ptrtoint ptr %9 to i64
  %11 = and i64 %10, 1
  %.not = icmp eq i64 %11, 0
  br i1 %.not, label %12, label %lean_inc.exit19

12:                                               ; preds = %7
  %.val.i = load i32, ptr %9, align 4, !tbaa !9
  %13 = icmp sgt i32 %.val.i, 0
  br i1 %13, label %14, label %16, !prof !12

14:                                               ; preds = %12
  %15 = add nuw i32 %.val.i, 1
  store i32 %15, ptr %9, align 4, !tbaa !9
  br label %lean_inc.exit19

16:                                               ; preds = %12
  %.not.i = icmp eq i32 %.val.i, 0
  br i1 %.not.i, label %lean_inc.exit19, label %17

17:                                               ; preds = %16
  tail call void @lean_inc_ref_cold(ptr noundef nonnull %9) #5
  br label %lean_inc.exit19

lean_inc.exit19:                                  ; preds = %17, %16, %14, %7
  %18 = ptrtoint ptr %2 to i64
  %19 = and i64 %18, 1
  %.not24 = icmp eq i64 %19, 0
  br i1 %.not24, label %20, label %lean_inc.exit

20:                                               ; preds = %lean_inc.exit19
  %.val.i20 = load i32, ptr %2, align 4, !tbaa !9
  %21 = icmp sgt i32 %.val.i20, 0
  br i1 %21, label %22, label %24, !prof !12

22:                                               ; preds = %20
  %23 = add nuw i32 %.val.i20, 1
  store i32 %23, ptr %2, align 4, !tbaa !9
  br label %lean_inc.exit

24:                                               ; preds = %20
  %.not.i21 = icmp eq i32 %.val.i20, 0
  br i1 %.not.i21, label %lean_inc.exit, label %25

25:                                               ; preds = %24
  tail call void @lean_inc_ref_cold(ptr noundef nonnull %2) #5
  br label %lean_inc.exit

lean_inc.exit:                                    ; preds = %25, %24, %22, %lean_inc.exit19
  %26 = load ptr, ptr %8, align 8, !tbaa !5
  %27 = ptrtoint ptr %26 to i64
  %28 = and i64 %27, 1
  %.not.i23 = icmp eq i64 %28, 0
  br i1 %.not.i23, label %29, label %lean_inc.exit.i

29:                                               ; preds = %lean_inc.exit
  %.val.i.i = load i32, ptr %26, align 4, !tbaa !9
  %30 = icmp sgt i32 %.val.i.i, 0
  br i1 %30, label %31, label %33, !prof !12

31:                                               ; preds = %29
  %32 = add nuw i32 %.val.i.i, 1
  store i32 %32, ptr %26, align 4, !tbaa !9
  br label %lean_inc.exit.i

33:                                               ; preds = %29
  %.not.i.i = icmp eq i32 %.val.i.i, 0
  br i1 %.not.i.i, label %lean_inc.exit.i, label %34

34:                                               ; preds = %33
  tail call void @lean_inc_ref_cold(ptr noundef nonnull %26) #5
  br label %lean_inc.exit.i

lean_inc.exit.i:                                  ; preds = %34, %33, %31, %lean_inc.exit
  tail call void @lean_inc_heartbeat() #5
  %35 = tail call noalias ptr @mi_malloc_small(i64 noundef 32) #5
  %36 = icmp eq ptr %35, null
  br i1 %36, label %37, label %l_Lean_PrettyPrinter_Delaborator_SubExpr_getExpr___rarg.exit

37:                                               ; preds = %lean_inc.exit.i
  tail call void @lean_internal_panic_out_of_memory() #6
  unreachable

l_Lean_PrettyPrinter_Delaborator_SubExpr_getExpr___rarg.exit: ; preds = %lean_inc.exit.i
  %38 = getelementptr inbounds nuw i8, ptr %35, i64 4
  store i32 1, ptr %35, align 4, !tbaa !9
  store i32 -184549344, ptr %38, align 4
  %39 = getelementptr inbounds nuw i8, ptr %35, i64 8
  store ptr @l_Lean_PrettyPrinter_Delaborator_SubExpr_getExpr___rarg___lambda__1, ptr %39, align 8, !tbaa !5
  %40 = getelementptr inbounds nuw i8, ptr %35, i64 16
  store i16 2, ptr %40, align 8, !tbaa !17
  %41 = getelementptr inbounds nuw i8, ptr %35, i64 18
  store i16 1, ptr %41, align 2, !tbaa !17
  %42 = getelementptr inbounds nuw i8, ptr %35, i64 24
  store ptr %2, ptr %42, align 8, !tbaa !5
  %43 = tail call ptr @lean_apply_4(ptr noundef %26, ptr noundef nonnull inttoptr (i64 1 to ptr), ptr noundef nonnull inttoptr (i64 1 to ptr), ptr noundef %3, ptr noundef nonnull %35) #5
  tail call void @lean_inc_heartbeat() #5
  %44 = tail call noalias ptr @mi_malloc_small(i64 noundef 64) #5
  %45 = icmp eq ptr %44, null
  br i1 %45, label %46, label %lean_alloc_closure.exit

46:                                               ; preds = %l_Lean_PrettyPrinter_Delaborator_SubExpr_getExpr___rarg.exit
  tail call void @lean_internal_panic_out_of_memory() #6
  unreachable

lean_alloc_closure.exit:                          ; preds = %l_Lean_PrettyPrinter_Delaborator_SubExpr_getExpr___rarg.exit
  %47 = getelementptr inbounds nuw i8, ptr %44, i64 4
  store i32 1, ptr %44, align 4, !tbaa !9
  store i32 -184549312, ptr %47, align 4
  %48 = getelementptr inbounds nuw i8, ptr %44, i64 8
  store ptr @l_Lean_PrettyPrinter_Delaborator_SubExpr_withLetBody___rarg___lambda__2, ptr %48, align 8, !tbaa !5
  %49 = getelementptr inbounds nuw i8, ptr %44, i64 16
  store i16 6, ptr %49, align 8, !tbaa !17
  %50 = getelementptr inbounds nuw i8, ptr %44, i64 18
  store i16 5, ptr %50, align 2, !tbaa !17
  %51 = getelementptr inbounds nuw i8, ptr %44, i64 24
  store ptr %0, ptr %51, align 8, !tbaa !5
  %52 = getelementptr inbounds nuw i8, ptr %44, i64 32
  store ptr %2, ptr %52, align 8, !tbaa !5
  %53 = getelementptr inbounds nuw i8, ptr %44, i64 40
  store ptr %4, ptr %53, align 8, !tbaa !5
  %54 = getelementptr inbounds nuw i8, ptr %44, i64 48
  store ptr %6, ptr %54, align 8, !tbaa !5
  %55 = getelementptr inbounds nuw i8, ptr %44, i64 56
  store ptr %5, ptr %55, align 8, !tbaa !5
  %56 = tail call ptr @lean_apply_4(ptr noundef %9, ptr noundef nonnull inttoptr (i64 1 to ptr), ptr noundef nonnull inttoptr (i64 1 to ptr), ptr noundef %43, ptr noundef nonnull %44) #5
  ret ptr %56
}